; Function Attrs: nofree norecurse nosync nounwind memory(argmem: readwrite) uwtable
define internal fastcc range(i32 -1094995529, 1) i32 @rle(ptr noundef writeonly captures(address) %0, ptr noundef readonly captures(none) %1, i32 noundef %2, i32 noundef %3) unnamed_addr #11 {
  %5 = sext i32 %3 to i64
  %6 = getelementptr inbounds i8, ptr %0, i64 %5
  %7 = icmp sgt i32 %2, 0
  br i1 %7, label %.lr.ph, label %._crit_edge

.lr.ph:                                           ; preds = %4, %.loopexit
  %.02854 = phi i32 [ %.129, %.loopexit ], [ %3, %4 ]
  %.03053 = phi i32 [ %.131, %.loopexit ], [ %2, %4 ]
  %.03252 = phi ptr [ %.2, %.loopexit ], [ %1, %4 ]
  %.03451 = phi ptr [ %.236, %.loopexit ], [ %0, %4 ]
  %8 = getelementptr inbounds nuw i8, ptr %.03252, i64 1
  %9 = load i8, ptr %.03252, align 1, !tbaa !44
  %10 = sext i8 %9 to i32
  %11 = icmp slt i8 %9, 0
  br i1 %11, label %12, label %23

12:                                               ; preds = %.lr.ph
  %13 = add nsw i32 %.02854, %10
  %14 = icmp slt i32 %13, 0
  br i1 %14, label %.loopexit44, label %15

15:                                               ; preds = %12
  %.neg = add nsw i32 %.03053, -1
  %16 = add i32 %.neg, %10
  %17 = icmp slt i32 %16, 0
  br i1 %17, label %.loopexit44, label %.preheader.preheader

.preheader.preheader:                             ; preds = %15
  %18 = sub nsw i32 0, %10
  br label %.preheader

.preheader:                                       ; preds = %.preheader.preheader, %.preheader
  %.050 = phi i32 [ %19, %.preheader ], [ %18, %.preheader.preheader ]
  %.13349 = phi ptr [ %20, %.preheader ], [ %8, %.preheader.preheader ]
  %.13548 = phi ptr [ %22, %.preheader ], [ %.03451, %.preheader.preheader ]
  %19 = add nsw i32 %.050, -1
  %20 = getelementptr inbounds nuw i8, ptr %.13349, i64 1
  %21 = load i8, ptr %.13349, align 1, !tbaa !44
  %22 = getelementptr inbounds nuw i8, ptr %.13548, i64 1
  store i8 %21, ptr %.13548, align 1, !tbaa !44
  %.not42 = icmp eq i32 %19, 0
  br i1 %.not42, label %.loopexit, label %.preheader, !llvm.loop !174

23:                                               ; preds = %.lr.ph
  %24 = add nuw nsw i32 %10, 1
  %25 = sub nsw i32 %.02854, %24
  %26 = icmp slt i32 %25, 0
  br i1 %26, label %.loopexit44, label %27

27:                                               ; preds = %23
  %28 = add nsw i32 %.03053, -2
  %29 = icmp eq i32 %.03053, 1
  br i1 %29, label %.loopexit44, label %.preheader43.preheader

.preheader43.preheader:                           ; preds = %27
  %.pre = load i8, ptr %8, align 1, !tbaa !44
  br label %.preheader43

.preheader43:                                     ; preds = %.preheader43.preheader, %.preheader43
  %.147 = phi i32 [ %30, %.preheader43 ], [ %24, %.preheader43.preheader ]
  %.346 = phi ptr [ %31, %.preheader43 ], [ %.03451, %.preheader43.preheader ]
  %30 = add nsw i32 %.147, -1
  %31 = getelementptr inbounds nuw i8, ptr %.346, i64 1
  store i8 %.pre, ptr %.346, align 1, !tbaa !44
  %.not41 = icmp eq i32 %30, 0
  br i1 %.not41, label %32, label %.preheader43, !llvm.loop !218

32:                                               ; preds = %.preheader43
  %33 = getelementptr inbounds nuw i8, ptr %.03252, i64 2
  br label %.loopexit

.loopexit:                                        ; preds = %.preheader, %32
  %.236 = phi ptr [ %31, %32 ], [ %22, %.preheader ]
  %.2 = phi ptr [ %33, %32 ], [ %20, %.preheader ]
  %.131 = phi i32 [ %28, %32 ], [ %16, %.preheader ]
  %.129 = phi i32 [ %25, %32 ], [ %13, %.preheader ]
  %34 = icmp sgt i32 %.131, 0
  br i1 %34, label %.lr.ph, label %._crit_edge, !llvm.loop !175

._crit_edge:                                      ; preds = %.loopexit, %4
  %.034.lcssa = phi ptr [ %0, %4 ], [ %.236, %.loopexit ]
  %.not = icmp eq ptr %6, %.034.lcssa
  %. = select i1 %.not, i32 0, i32 -1094995529
  br label %.loopexit44

.loopexit44:                                      ; preds = %23, %27, %12, %15, %._crit_edge
  %.027 = phi i32 [ %., %._crit_edge ], [ -1094995529, %15 ], [ -1094995529, %12 ], [ -1094995529, %27 ], [ -1094995529, %23 ]
  ret i32 %.027
}